
ll_blink1.elf:     file format elf32-littlearm

Sections:
Idx Name          Size      VMA       LMA       File off  Algn
  0 .isr_vector   00000198  08000000  08000000  00010000  2**0
                  CONTENTS, ALLOC, LOAD, READONLY, DATA
  1 .text         0000041c  08000198  08000198  00010198  2**2
                  CONTENTS, ALLOC, LOAD, READONLY, CODE
  2 .rodata       00000000  080005b4  080005b4  00020004  2**0
                  CONTENTS, ALLOC, LOAD, DATA
  3 .ARM.extab    00000000  080005b4  080005b4  00020004  2**0
                  CONTENTS
  4 .ARM          00000000  080005b4  080005b4  00020004  2**0
                  CONTENTS
  5 .preinit_array 00000000  080005b4  080005b4  00020004  2**0
                  CONTENTS, ALLOC, LOAD, DATA
  6 .init_array   00000004  080005b4  080005b4  000105b4  2**2
                  CONTENTS, ALLOC, LOAD, DATA
  7 .fini_array   00000004  080005b8  080005b8  000105b8  2**2
                  CONTENTS, ALLOC, LOAD, DATA
  8 .data         00000004  20000000  080005bc  00020000  2**2
                  CONTENTS, ALLOC, LOAD, DATA
  9 .bss          00000020  20000004  080005c0  00020004  2**2
                  ALLOC
 10 ._user_heap_stack 00000604  20000024  080005c0  00020024  2**0
                  ALLOC
 11 .ARM.attributes 00000030  00000000  00000000  00020004  2**0
                  CONTENTS, READONLY
 12 .comment      00000043  00000000  00000000  00020034  2**0
                  CONTENTS, READONLY
 13 .debug_frame  0000002c  00000000  00000000  00020078  2**2
                  CONTENTS, READONLY, DEBUGGING, OCTETS

Disassembly of section .text:

08000198 <__do_global_dtors_aux>:
 8000198:	b510      	push	{r4, lr}
 800019a:	4c05      	ldr	r4, [pc, #20]	; (80001b0 <__do_global_dtors_aux+0x18>)
 800019c:	7823      	ldrb	r3, [r4, #0]
 800019e:	b933      	cbnz	r3, 80001ae <__do_global_dtors_aux+0x16>
 80001a0:	4b04      	ldr	r3, [pc, #16]	; (80001b4 <__do_global_dtors_aux+0x1c>)
 80001a2:	b113      	cbz	r3, 80001aa <__do_global_dtors_aux+0x12>
 80001a4:	4804      	ldr	r0, [pc, #16]	; (80001b8 <__do_global_dtors_aux+0x20>)
 80001a6:	f3af 8000 	nop.w
 80001aa:	2301      	movs	r3, #1
 80001ac:	7023      	strb	r3, [r4, #0]
 80001ae:	bd10      	pop	{r4, pc}
 80001b0:	20000004 	.word	0x20000004
 80001b4:	00000000 	.word	0x00000000
 80001b8:	0800059c 	.word	0x0800059c

080001bc <frame_dummy>:
 80001bc:	b508      	push	{r3, lr}
 80001be:	4b03      	ldr	r3, [pc, #12]	; (80001cc <frame_dummy+0x10>)
 80001c0:	b11b      	cbz	r3, 80001ca <frame_dummy+0xe>
 80001c2:	4903      	ldr	r1, [pc, #12]	; (80001d0 <frame_dummy+0x14>)
 80001c4:	4803      	ldr	r0, [pc, #12]	; (80001d4 <frame_dummy+0x18>)
 80001c6:	f3af 8000 	nop.w
 80001ca:	bd08      	pop	{r3, pc}
 80001cc:	00000000 	.word	0x00000000
 80001d0:	20000008 	.word	0x20000008
 80001d4:	0800059c 	.word	0x0800059c

080001d8 <LL_AHB1_GRP1_EnableClock>:
 80001d8:	4b05      	ldr	r3, [pc, #20]	; (80001f0 <LL_AHB1_GRP1_EnableClock+0x18>)
 80001da:	6b1a      	ldr	r2, [r3, #48]	; 0x30
 80001dc:	4302      	orrs	r2, r0
 80001de:	631a      	str	r2, [r3, #48]	; 0x30
 80001e0:	6b1b      	ldr	r3, [r3, #48]	; 0x30
 80001e2:	b082      	sub	sp, #8
 80001e4:	4003      	ands	r3, r0
 80001e6:	9301      	str	r3, [sp, #4]
 80001e8:	9b01      	ldr	r3, [sp, #4]
 80001ea:	b002      	add	sp, #8
 80001ec:	4770      	bx	lr
 80001ee:	bf00      	nop
 80001f0:	40023800 	.word	0x40023800

080001f4 <SystemClock_Config>:
 80001f4:	4a29      	ldr	r2, [pc, #164]	; (800029c <SystemClock_Config+0xa8>)
 80001f6:	6813      	ldr	r3, [r2, #0]
 80001f8:	f023 0307 	bic.w	r3, r3, #7
 80001fc:	f043 0303 	orr.w	r3, r3, #3
 8000200:	b510      	push	{r4, lr}
 8000202:	6013      	str	r3, [r2, #0]
 8000204:	6813      	ldr	r3, [r2, #0]
 8000206:	f003 0307 	and.w	r3, r3, #7
 800020a:	2b03      	cmp	r3, #3
 800020c:	d1fa      	bne.n	8000204 <SystemClock_Config+0x10>
 800020e:	4a24      	ldr	r2, [pc, #144]	; (80002a0 <SystemClock_Config+0xac>)
 8000210:	6813      	ldr	r3, [r2, #0]
 8000212:	f443 4340 	orr.w	r3, r3, #49152	; 0xc000
 8000216:	6013      	str	r3, [r2, #0]
 8000218:	4b22      	ldr	r3, [pc, #136]	; (80002a4 <SystemClock_Config+0xb0>)
 800021a:	681a      	ldr	r2, [r3, #0]
 800021c:	f442 3280 	orr.w	r2, r2, #65536	; 0x10000
 8000220:	601a      	str	r2, [r3, #0]
 8000222:	681a      	ldr	r2, [r3, #0]
 8000224:	0391      	lsls	r1, r2, #14
 8000226:	d5fc      	bpl.n	8000222 <SystemClock_Config+0x2e>
 8000228:	685a      	ldr	r2, [r3, #4]
 800022a:	491f      	ldr	r1, [pc, #124]	; (80002a8 <SystemClock_Config+0xb4>)
 800022c:	4011      	ands	r1, r2
 800022e:	4a1f      	ldr	r2, [pc, #124]	; (80002ac <SystemClock_Config+0xb8>)
 8000230:	430a      	orrs	r2, r1
 8000232:	605a      	str	r2, [r3, #4]
 8000234:	685a      	ldr	r2, [r3, #4]
 8000236:	f422 3240 	bic.w	r2, r2, #196608	; 0x30000
 800023a:	605a      	str	r2, [r3, #4]
 800023c:	681a      	ldr	r2, [r3, #0]
 800023e:	f042 7280 	orr.w	r2, r2, #16777216	; 0x1000000
 8000242:	601a      	str	r2, [r3, #0]
 8000244:	4b17      	ldr	r3, [pc, #92]	; (80002a4 <SystemClock_Config+0xb0>)
 8000246:	681a      	ldr	r2, [r3, #0]
 8000248:	0192      	lsls	r2, r2, #6
 800024a:	d5fc      	bpl.n	8000246 <SystemClock_Config+0x52>
 800024c:	689a      	ldr	r2, [r3, #8]
 800024e:	4c15      	ldr	r4, [pc, #84]	; (80002a4 <SystemClock_Config+0xb0>)
 8000250:	f022 02f0 	bic.w	r2, r2, #240	; 0xf0
 8000254:	609a      	str	r2, [r3, #8]
 8000256:	689a      	ldr	r2, [r3, #8]
 8000258:	f422 52e0 	bic.w	r2, r2, #7168	; 0x1c00
 800025c:	f442 5280 	orr.w	r2, r2, #4096	; 0x1000
 8000260:	609a      	str	r2, [r3, #8]
 8000262:	689a      	ldr	r2, [r3, #8]
 8000264:	f422 4260 	bic.w	r2, r2, #57344	; 0xe000
 8000268:	609a      	str	r2, [r3, #8]
 800026a:	689a      	ldr	r2, [r3, #8]
 800026c:	f022 0203 	bic.w	r2, r2, #3
 8000270:	f042 0202 	orr.w	r2, r2, #2
 8000274:	609a      	str	r2, [r3, #8]
 8000276:	68a3      	ldr	r3, [r4, #8]
 8000278:	f003 030c 	and.w	r3, r3, #12
 800027c:	2b08      	cmp	r3, #8
 800027e:	d1fa      	bne.n	8000276 <SystemClock_Config+0x82>
 8000280:	480b      	ldr	r0, [pc, #44]	; (80002b0 <SystemClock_Config+0xbc>)
 8000282:	f000 f954 	bl	800052e <LL_Init1msTick>
 8000286:	480a      	ldr	r0, [pc, #40]	; (80002b0 <SystemClock_Config+0xbc>)
 8000288:	f000 f95e 	bl	8000548 <LL_SetSystemCoreClock>
 800028c:	f8d4 308c 	ldr.w	r3, [r4, #140]	; 0x8c
 8000290:	f023 7380 	bic.w	r3, r3, #16777216	; 0x1000000
 8000294:	f8c4 308c 	str.w	r3, [r4, #140]	; 0x8c
 8000298:	bd10      	pop	{r4, pc}
 800029a:	bf00      	nop
 800029c:	40023c00 	.word	0x40023c00
 80002a0:	40007000 	.word	0x40007000
 80002a4:	40023800 	.word	0x40023800
 80002a8:	ffbf8000 	.word	0xffbf8000
 80002ac:	00403019 	.word	0x00403019
 80002b0:	05b8d800 	.word	0x05b8d800

080002b4 <main>:
 80002b4:	4b26      	ldr	r3, [pc, #152]	; (8000350 <main+0x9c>)
 80002b6:	4927      	ldr	r1, [pc, #156]	; (8000354 <main+0xa0>)
 80002b8:	6c5a      	ldr	r2, [r3, #68]	; 0x44
 80002ba:	b530      	push	{r4, r5, lr}
 80002bc:	f442 4280 	orr.w	r2, r2, #16384	; 0x4000
 80002c0:	645a      	str	r2, [r3, #68]	; 0x44
 80002c2:	6c5a      	ldr	r2, [r3, #68]	; 0x44
 80002c4:	4d24      	ldr	r5, [pc, #144]	; (8000358 <main+0xa4>)
 80002c6:	b089      	sub	sp, #36	; 0x24
 80002c8:	f402 4280 	and.w	r2, r2, #16384	; 0x4000
 80002cc:	9201      	str	r2, [sp, #4]
 80002ce:	9a01      	ldr	r2, [sp, #4]
 80002d0:	6c1a      	ldr	r2, [r3, #64]	; 0x40
 80002d2:	f042 5280 	orr.w	r2, r2, #268435456	; 0x10000000
 80002d6:	641a      	str	r2, [r3, #64]	; 0x40
 80002d8:	6c1b      	ldr	r3, [r3, #64]	; 0x40
 80002da:	f003 5380 	and.w	r3, r3, #268435456	; 0x10000000
 80002de:	9300      	str	r3, [sp, #0]
 80002e0:	9b00      	ldr	r3, [sp, #0]
 80002e2:	68ca      	ldr	r2, [r1, #12]
 80002e4:	4b1d      	ldr	r3, [pc, #116]	; (800035c <main+0xa8>)
 80002e6:	f422 62e0 	bic.w	r2, r2, #1792	; 0x700
 80002ea:	0412      	lsls	r2, r2, #16
 80002ec:	0c12      	lsrs	r2, r2, #16
 80002ee:	4313      	orrs	r3, r2
 80002f0:	60cb      	str	r3, [r1, #12]
 80002f2:	f7ff ff7f 	bl	80001f4 <SystemClock_Config>
 80002f6:	2400      	movs	r4, #0
 80002f8:	2004      	movs	r0, #4
 80002fa:	9407      	str	r4, [sp, #28]
 80002fc:	f7ff ff6c 	bl	80001d8 <LL_AHB1_GRP1_EnableClock>
 8000300:	2080      	movs	r0, #128	; 0x80
 8000302:	f7ff ff69 	bl	80001d8 <LL_AHB1_GRP1_EnableClock>
 8000306:	2001      	movs	r0, #1
 8000308:	f7ff ff66 	bl	80001d8 <LL_AHB1_GRP1_EnableClock>
 800030c:	f44f 5300 	mov.w	r3, #8192	; 0x2000
 8000310:	61ab      	str	r3, [r5, #24]
 8000312:	a902      	add	r1, sp, #8
 8000314:	e9cd 3002 	strd	r3, r0, [sp, #8]
 8000318:	e9cd 4004 	strd	r4, r0, [sp, #16]
 800031c:	4628      	mov	r0, r5
 800031e:	9406      	str	r4, [sp, #24]
 8000320:	f000 f867 	bl	80003f2 <LL_GPIO_Init>
 8000324:	f04f 22e0 	mov.w	r2, #3758153728	; 0xe000e000
 8000328:	6913      	ldr	r3, [r2, #16]
 800032a:	f043 0302 	orr.w	r3, r3, #2
 800032e:	6113      	str	r3, [r2, #16]
 8000330:	f000 f826 	bl	8000380 <get_systick_counter>
 8000334:	1b03      	subs	r3, r0, r4
 8000336:	2b63      	cmp	r3, #99	; 0x63
 8000338:	d9fa      	bls.n	8000330 <main+0x7c>
 800033a:	696b      	ldr	r3, [r5, #20]
 800033c:	041a      	lsls	r2, r3, #16
 800033e:	43db      	mvns	r3, r3
 8000340:	f002 5200 	and.w	r2, r2, #536870912	; 0x20000000
 8000344:	f403 5300 	and.w	r3, r3, #8192	; 0x2000
 8000348:	4313      	orrs	r3, r2
 800034a:	61ab      	str	r3, [r5, #24]
 800034c:	4604      	mov	r4, r0
 800034e:	e7ef      	b.n	8000330 <main+0x7c>
 8000350:	40023800 	.word	0x40023800
 8000354:	e000ed00 	.word	0xe000ed00
 8000358:	40020800 	.word	0x40020800
 800035c:	05fa0300 	.word	0x05fa0300

08000360 <NMI_Handler>:
 8000360:	e7fe      	b.n	8000360 <NMI_Handler>

08000362 <HardFault_Handler>:
 8000362:	e7fe      	b.n	8000362 <HardFault_Handler>

08000364 <MemManage_Handler>:
 8000364:	e7fe      	b.n	8000364 <MemManage_Handler>

08000366 <BusFault_Handler>:
 8000366:	e7fe      	b.n	8000366 <BusFault_Handler>

08000368 <UsageFault_Handler>:
 8000368:	e7fe      	b.n	8000368 <UsageFault_Handler>

0800036a <SVC_Handler>:
 800036a:	4770      	bx	lr

0800036c <DebugMon_Handler>:
 800036c:	4770      	bx	lr

0800036e <PendSV_Handler>:
 800036e:	4770      	bx	lr

08000370 <SysTick_Handler>:
 8000370:	4a02      	ldr	r2, [pc, #8]	; (800037c <SysTick_Handler+0xc>)
 8000372:	6813      	ldr	r3, [r2, #0]
 8000374:	3301      	adds	r3, #1
 8000376:	6013      	str	r3, [r2, #0]
 8000378:	4770      	bx	lr
 800037a:	bf00      	nop
 800037c:	20000020 	.word	0x20000020

08000380 <get_systick_counter>:
 8000380:	4b01      	ldr	r3, [pc, #4]	; (8000388 <get_systick_counter+0x8>)
 8000382:	6818      	ldr	r0, [r3, #0]
 8000384:	4770      	bx	lr
 8000386:	bf00      	nop
 8000388:	20000020 	.word	0x20000020

0800038c <SystemInit>:
 800038c:	4a03      	ldr	r2, [pc, #12]	; (800039c <SystemInit+0x10>)
 800038e:	f8d2 3088 	ldr.w	r3, [r2, #136]	; 0x88
 8000392:	f443 0370 	orr.w	r3, r3, #15728640	; 0xf00000
 8000396:	f8c2 3088 	str.w	r3, [r2, #136]	; 0x88
 800039a:	4770      	bx	lr
 800039c:	e000ed00 	.word	0xe000ed00

080003a0 <Reset_Handler>:
 80003a0:	f8df d034 	ldr.w	sp, [pc, #52]	; 80003d8 <LoopFillZerobss+0x12>
 80003a4:	480d      	ldr	r0, [pc, #52]	; (80003dc <LoopFillZerobss+0x16>)
 80003a6:	490e      	ldr	r1, [pc, #56]	; (80003e0 <LoopFillZerobss+0x1a>)
 80003a8:	4a0e      	ldr	r2, [pc, #56]	; (80003e4 <LoopFillZerobss+0x1e>)
 80003aa:	2300      	movs	r3, #0
 80003ac:	e002      	b.n	80003b4 <LoopCopyDataInit>

080003ae <CopyDataInit>:
 80003ae:	58d4      	ldr	r4, [r2, r3]
 80003b0:	50c4      	str	r4, [r0, r3]
 80003b2:	3304      	adds	r3, #4

080003b4 <LoopCopyDataInit>:
 80003b4:	18c4      	adds	r4, r0, r3
 80003b6:	428c      	cmp	r4, r1
 80003b8:	d3f9      	bcc.n	80003ae <CopyDataInit>
 80003ba:	4a0b      	ldr	r2, [pc, #44]	; (80003e8 <LoopFillZerobss+0x22>)
 80003bc:	4c0b      	ldr	r4, [pc, #44]	; (80003ec <LoopFillZerobss+0x26>)
 80003be:	2300      	movs	r3, #0
 80003c0:	e001      	b.n	80003c6 <LoopFillZerobss>

080003c2 <FillZerobss>:
 80003c2:	6013      	str	r3, [r2, #0]
 80003c4:	3204      	adds	r2, #4

080003c6 <LoopFillZerobss>:
 80003c6:	42a2      	cmp	r2, r4
 80003c8:	d3fb      	bcc.n	80003c2 <FillZerobss>
 80003ca:	f7ff ffdf 	bl	800038c <SystemInit>
 80003ce:	f000 f8c1 	bl	8000554 <__libc_init_array>
 80003d2:	f7ff ff6f 	bl	80002b4 <main>
 80003d6:	4770      	bx	lr
 80003d8:	20020000 	.word	0x20020000
 80003dc:	20000000 	.word	0x20000000
 80003e0:	20000004 	.word	0x20000004
 80003e4:	080005bc 	.word	0x080005bc
 80003e8:	20000004 	.word	0x20000004
 80003ec:	20000024 	.word	0x20000024

080003f0 <ADC_IRQHandler>:
 80003f0:	e7fe      	b.n	80003f0 <ADC_IRQHandler>

080003f2 <LL_GPIO_Init>:
 80003f2:	e92d 47f0 	stmdb	sp!, {r4, r5, r6, r7, r8, r9, sl, lr}
 80003f6:	4602      	mov	r2, r0
 80003f8:	680d      	ldr	r5, [r1, #0]
 80003fa:	fa95 f4a5 	rbit	r4, r5
 80003fe:	f04f 0e01 	mov.w	lr, #1
 8000402:	fab4 f484 	clz	r4, r4
 8000406:	2603      	movs	r6, #3
 8000408:	f04f 0c0f 	mov.w	ip, #15
 800040c:	fa35 f004 	lsrs.w	r0, r5, r4
 8000410:	d101      	bne.n	8000416 <LL_GPIO_Init+0x24>
 8000412:	e8bd 87f0 	ldmia.w	sp!, {r4, r5, r6, r7, r8, r9, sl, pc}
 8000416:	fa0e f304 	lsl.w	r3, lr, r4
 800041a:	402b      	ands	r3, r5
 800041c:	d06d      	beq.n	80004fa <LL_GPIO_Init+0x108>
 800041e:	6848      	ldr	r0, [r1, #4]
 8000420:	1e47      	subs	r7, r0, #1
 8000422:	2f01      	cmp	r7, #1
 8000424:	d81e      	bhi.n	8000464 <LL_GPIO_Init+0x72>
 8000426:	f8d2 8008 	ldr.w	r8, [r2, #8]
 800042a:	fa93 f7a3 	rbit	r7, r3
 800042e:	fab7 f787 	clz	r7, r7
 8000432:	fa93 f9a3 	rbit	r9, r3
 8000436:	007f      	lsls	r7, r7, #1
 8000438:	fa06 f707 	lsl.w	r7, r6, r7
 800043c:	ea28 0807 	bic.w	r8, r8, r7
 8000440:	fab9 f989 	clz	r9, r9
 8000444:	688f      	ldr	r7, [r1, #8]
 8000446:	ea4f 0949 	mov.w	r9, r9, lsl #1
 800044a:	fa07 f709 	lsl.w	r7, r7, r9
 800044e:	ea48 0707 	orr.w	r7, r8, r7
 8000452:	6097      	str	r7, [r2, #8]
 8000454:	6857      	ldr	r7, [r2, #4]
 8000456:	ea27 0803 	bic.w	r8, r7, r3
 800045a:	68cf      	ldr	r7, [r1, #12]
 800045c:	435f      	muls	r7, r3
 800045e:	ea48 0707 	orr.w	r7, r8, r7
 8000462:	6057      	str	r7, [r2, #4]
 8000464:	f8d2 800c 	ldr.w	r8, [r2, #12]
 8000468:	fa93 f7a3 	rbit	r7, r3
 800046c:	fab7 f787 	clz	r7, r7
 8000470:	fa93 f9a3 	rbit	r9, r3
 8000474:	007f      	lsls	r7, r7, #1
 8000476:	fa06 f707 	lsl.w	r7, r6, r7
 800047a:	ea28 0807 	bic.w	r8, r8, r7
 800047e:	fab9 f989 	clz	r9, r9
 8000482:	690f      	ldr	r7, [r1, #16]
 8000484:	ea4f 0949 	mov.w	r9, r9, lsl #1
 8000488:	fa07 f709 	lsl.w	r7, r7, r9
 800048c:	ea48 0707 	orr.w	r7, r8, r7
 8000490:	2802      	cmp	r0, #2
 8000492:	60d7      	str	r7, [r2, #12]
 8000494:	d11d      	bne.n	80004d2 <LL_GPIO_Init+0xe0>
 8000496:	fa93 f7a3 	rbit	r7, r3
 800049a:	fab7 f787 	clz	r7, r7
 800049e:	2f07      	cmp	r7, #7
 80004a0:	f8d1 9014 	ldr.w	r9, [r1, #20]
 80004a4:	dc2b      	bgt.n	80004fe <LL_GPIO_Init+0x10c>
 80004a6:	f8d2 a020 	ldr.w	sl, [r2, #32]
 80004aa:	fa93 f8a3 	rbit	r8, r3
 80004ae:	fab8 f888 	clz	r8, r8
 80004b2:	fa93 f7a3 	rbit	r7, r3
 80004b6:	fab7 f787 	clz	r7, r7
 80004ba:	ea4f 0888 	mov.w	r8, r8, lsl #2
 80004be:	fa0c f808 	lsl.w	r8, ip, r8
 80004c2:	00bf      	lsls	r7, r7, #2
 80004c4:	ea2a 0a08 	bic.w	sl, sl, r8
 80004c8:	fa09 f707 	lsl.w	r7, r9, r7
 80004cc:	ea4a 0707 	orr.w	r7, sl, r7
 80004d0:	6217      	str	r7, [r2, #32]
 80004d2:	f8d2 8000 	ldr.w	r8, [r2]
 80004d6:	fa93 f7a3 	rbit	r7, r3
 80004da:	fab7 f787 	clz	r7, r7
 80004de:	fa93 f3a3 	rbit	r3, r3
 80004e2:	fab3 f383 	clz	r3, r3
 80004e6:	007f      	lsls	r7, r7, #1
 80004e8:	fa06 f707 	lsl.w	r7, r6, r7
 80004ec:	005b      	lsls	r3, r3, #1
 80004ee:	ea28 0807 	bic.w	r8, r8, r7
 80004f2:	4098      	lsls	r0, r3
 80004f4:	ea48 0000 	orr.w	r0, r8, r0
 80004f8:	6010      	str	r0, [r2, #0]
 80004fa:	3401      	adds	r4, #1
 80004fc:	e786      	b.n	800040c <LL_GPIO_Init+0x1a>
 80004fe:	f8d2 8024 	ldr.w	r8, [r2, #36]	; 0x24
 8000502:	0a1f      	lsrs	r7, r3, #8
 8000504:	fa97 faa7 	rbit	sl, r7
 8000508:	faba fa8a 	clz	sl, sl
 800050c:	fa97 f7a7 	rbit	r7, r7
 8000510:	fab7 f787 	clz	r7, r7
 8000514:	ea4f 0a8a 	mov.w	sl, sl, lsl #2
 8000518:	00bf      	lsls	r7, r7, #2
 800051a:	fa0c fa0a 	lsl.w	sl, ip, sl
 800051e:	ea28 080a 	bic.w	r8, r8, sl
 8000522:	fa09 f907 	lsl.w	r9, r9, r7
 8000526:	ea48 0709 	orr.w	r7, r8, r9
 800052a:	6257      	str	r7, [r2, #36]	; 0x24
 800052c:	e7d1      	b.n	80004d2 <LL_GPIO_Init+0xe0>

0800052e <LL_Init1msTick>:
 800052e:	f44f 737a 	mov.w	r3, #1000	; 0x3e8
 8000532:	fbb0 f0f3 	udiv	r0, r0, r3
 8000536:	f04f 23e0 	mov.w	r3, #3758153728	; 0xe000e000
 800053a:	2200      	movs	r2, #0
 800053c:	3801      	subs	r0, #1
 800053e:	6158      	str	r0, [r3, #20]
 8000540:	619a      	str	r2, [r3, #24]
 8000542:	2205      	movs	r2, #5
 8000544:	611a      	str	r2, [r3, #16]
 8000546:	4770      	bx	lr

08000548 <LL_SetSystemCoreClock>:
 8000548:	4b01      	ldr	r3, [pc, #4]	; (8000550 <LL_SetSystemCoreClock+0x8>)
 800054a:	6018      	str	r0, [r3, #0]
 800054c:	4770      	bx	lr
 800054e:	bf00      	nop
 8000550:	20000000 	.word	0x20000000

08000554 <__libc_init_array>:
 8000554:	b570      	push	{r4, r5, r6, lr}
 8000556:	4d0d      	ldr	r5, [pc, #52]	; (800058c <__libc_init_array+0x38>)
 8000558:	4c0d      	ldr	r4, [pc, #52]	; (8000590 <__libc_init_array+0x3c>)
 800055a:	1b64      	subs	r4, r4, r5
 800055c:	10a4      	asrs	r4, r4, #2
 800055e:	2600      	movs	r6, #0
 8000560:	42a6      	cmp	r6, r4
 8000562:	d109      	bne.n	8000578 <__libc_init_array+0x24>
 8000564:	4d0b      	ldr	r5, [pc, #44]	; (8000594 <__libc_init_array+0x40>)
 8000566:	4c0c      	ldr	r4, [pc, #48]	; (8000598 <__libc_init_array+0x44>)
 8000568:	f000 f818 	bl	800059c <_init>
 800056c:	1b64      	subs	r4, r4, r5
 800056e:	10a4      	asrs	r4, r4, #2
 8000570:	2600      	movs	r6, #0
 8000572:	42a6      	cmp	r6, r4
 8000574:	d105      	bne.n	8000582 <__libc_init_array+0x2e>
 8000576:	bd70      	pop	{r4, r5, r6, pc}
 8000578:	f855 3b04 	ldr.w	r3, [r5], #4
 800057c:	4798      	blx	r3
 800057e:	3601      	adds	r6, #1
 8000580:	e7ee      	b.n	8000560 <__libc_init_array+0xc>
 8000582:	f855 3b04 	ldr.w	r3, [r5], #4
 8000586:	4798      	blx	r3
 8000588:	3601      	adds	r6, #1
 800058a:	e7f2      	b.n	8000572 <__libc_init_array+0x1e>
 800058c:	080005b4 	.word	0x080005b4
 8000590:	080005b4 	.word	0x080005b4
 8000594:	080005b4 	.word	0x080005b4
 8000598:	080005b8 	.word	0x080005b8

0800059c <_init>:
 800059c:	b5f8      	push	{r3, r4, r5, r6, r7, lr}
 800059e:	bf00      	nop
 80005a0:	bcf8      	pop	{r3, r4, r5, r6, r7}
 80005a2:	bc08      	pop	{r3}
 80005a4:	469e      	mov	lr, r3
 80005a6:	4770      	bx	lr

080005a8 <_fini>:
 80005a8:	b5f8      	push	{r3, r4, r5, r6, r7, lr}
 80005aa:	bf00      	nop
 80005ac:	bcf8      	pop	{r3, r4, r5, r6, r7}
 80005ae:	bc08      	pop	{r3}
 80005b0:	469e      	mov	lr, r3
 80005b2:	4770      	bx	lr
